; Function Attrs: mustprogress uwtable
define dso_local void @_ZN7AstNode10deleteNodeEv(ptr noundef nonnull align 8 dereferenceable(152) %0) local_unnamed_addr #4 align 2 {
  %2 = getelementptr inbounds i8, ptr %0, i64 16
  %3 = load ptr, ptr %2, align 8
  %.not = icmp eq ptr %3, null
  br i1 %.not, label %8, label %4

4:                                                ; preds = %1
  %5 = tail call noundef nonnull align 8 dereferenceable(112) ptr @_ZN7V3Error19v3errorPrepFileLineB5cxx11E11V3ErrorCodePKcib(i8 4, ptr noundef nonnull @.str.557, i32 noundef 857, i1 noundef zeroext false)
  %6 = tail call noundef nonnull align 8 dereferenceable(112) ptr @_ZN7V3Error10v3errorStrB5cxx11Ev()
  %7 = tail call noundef nonnull align 8 dereferenceable(8) ptr @_ZStlsISt11char_traitsIcEERSt13basic_ostreamIcT_ES5_PKc(ptr noundef nonnull align 8 dereferenceable(8) %6, ptr noundef nonnull @.str.635)
  tail call void @_ZNK7AstNode15v3errorEndFatalERNSt7__cxx1119basic_ostringstreamIcSt11char_traitsIcESaIcEEE(ptr noundef nonnull align 8 dereferenceable(152) %0, ptr noundef nonnull align 8 dereferenceable(112) %7) #25
  unreachable

8:                                                ; preds = %1
  %9 = load i64, ptr @_ZN7AstNode12s_editCntGblE, align 8
  %10 = add i64 %9, 1
  store i64 %10, ptr @_ZN7AstNode12s_editCntGblE, align 8
  %11 = getelementptr inbounds i8, ptr %0, i64 8
  store ptr inttoptr (i64 1 to ptr), ptr %11, align 8
  store ptr inttoptr (i64 1 to ptr), ptr %2, align 8
  %12 = getelementptr inbounds i8, ptr %0, i64 80
  store ptr inttoptr (i64 1 to ptr), ptr %12, align 8
  %13 = getelementptr inbounds i8, ptr %0, i64 24
  store ptr inttoptr (i64 1 to ptr), ptr %13, align 8
  %14 = getelementptr inbounds i8, ptr %0, i64 32
  store ptr inttoptr (i64 1 to ptr), ptr %14, align 8
  %15 = getelementptr inbounds i8, ptr %0, i64 40
  store ptr inttoptr (i64 1 to ptr), ptr %15, align 8
  %16 = getelementptr inbounds i8, ptr %0, i64 48
  store ptr inttoptr (i64 1 to ptr), ptr %16, align 8
  %17 = getelementptr inbounds i8, ptr %0, i64 56
  store ptr inttoptr (i64 1 to ptr), ptr %17, align 8
  %18 = load ptr, ptr %0, align 8
  %19 = getelementptr inbounds i8, ptr %18, i64 48
  %20 = load ptr, ptr %19, align 8
  tail call void %20(ptr noundef nonnull align 8 dereferenceable(152) %0) #24
  ret void
}